; Function Attrs: nofree norecurse nosync nounwind memory(read, argmem: readwrite, inaccessiblemem: none) uwtable
define internal void @planar_rgbf32be_to_uv(ptr noundef writeonly captures(none) %0, ptr noundef writeonly captures(none) %1, ptr noundef readonly captures(none) %2, i32 noundef %3, ptr noundef readonly captures(none) %4, ptr readnone captures(none) %5) #2 {
  %7 = getelementptr inbounds nuw i8, ptr %4, i64 12
  %8 = load i32, ptr %7, align 4, !tbaa !42
  %9 = getelementptr inbounds nuw i8, ptr %4, i64 16
  %10 = load i32, ptr %9, align 4, !tbaa !42
  %11 = getelementptr inbounds nuw i8, ptr %4, i64 20
  %12 = load i32, ptr %11, align 4, !tbaa !42
  %13 = getelementptr inbounds nuw i8, ptr %4, i64 24
  %14 = load i32, ptr %13, align 4, !tbaa !42
  %15 = getelementptr inbounds nuw i8, ptr %4, i64 28
  %16 = load i32, ptr %15, align 4, !tbaa !42
  %17 = getelementptr inbounds nuw i8, ptr %4, i64 32
  %18 = load i32, ptr %17, align 4, !tbaa !42
  %19 = icmp sgt i32 %3, 0
  br i1 %19, label %.lr.ph, label %planar_rgbf32_to_uv.exit

.lr.ph:                                           ; preds = %6
  %20 = load ptr, ptr %2, align 8, !tbaa !48
  %21 = getelementptr inbounds nuw i8, ptr %2, i64 8
  %22 = load ptr, ptr %21, align 8, !tbaa !48
  %23 = getelementptr inbounds nuw i8, ptr %2, i64 16
  %24 = load ptr, ptr %23, align 8, !tbaa !48
  %wide.trip.count = zext nneg i32 %3 to i64
  br label %25

25:                                               ; preds = %.lr.ph, %25
  %indvars.iv = phi i64 [ 0, %.lr.ph ], [ %indvars.iv.next, %25 ]
  %26 = getelementptr inbounds nuw float, ptr %20, i64 %indvars.iv
  %27 = load i32, ptr %26, align 1, !tbaa !34
  %28 = tail call i32 @llvm.bswap.i32(i32 %27)
  %29 = bitcast i32 %28 to float
  %30 = fmul nsz float %29, 6.553500e+04
  %31 = fcmp nsz ogt float %30, 0.000000e+00
  %32 = select nsz i1 %31, float %30, float 0.000000e+00
  %33 = fcmp nsz ogt float %32, 6.553500e+04
  %..i5 = select nsz i1 %33, float 6.553500e+04, float %32
  %34 = tail call i64 @llvm.lrint.i64.f32(float %..i5)
  %35 = trunc i64 %34 to i32
  %36 = getelementptr inbounds nuw float, ptr %22, i64 %indvars.iv
  %37 = load i32, ptr %36, align 1, !tbaa !34
  %38 = tail call i32 @llvm.bswap.i32(i32 %37)
  %39 = bitcast i32 %38 to float
  %40 = fmul nsz float %39, 6.553500e+04
  %41 = fcmp nsz ogt float %40, 0.000000e+00
  %42 = select nsz i1 %41, float %40, float 0.000000e+00
  %43 = fcmp nsz ogt float %42, 6.553500e+04
  %..i4 = select nsz i1 %43, float 6.553500e+04, float %42
  %44 = tail call i64 @llvm.lrint.i64.f32(float %..i4)
  %45 = trunc i64 %44 to i32
  %46 = getelementptr inbounds nuw float, ptr %24, i64 %indvars.iv
  %47 = load i32, ptr %46, align 1, !tbaa !34
  %48 = tail call i32 @llvm.bswap.i32(i32 %47)
  %49 = bitcast i32 %48 to float
  %50 = fmul nsz float %49, 6.553500e+04
  %51 = fcmp nsz ogt float %50, 0.000000e+00
  %52 = select nsz i1 %51, float %50, float 0.000000e+00
  %53 = fcmp nsz ogt float %52, 6.553500e+04
  %..i = select nsz i1 %53, float 6.553500e+04, float %52
  %54 = tail call i64 @llvm.lrint.i64.f32(float %..i)
  %55 = trunc i64 %54 to i32
  %56 = mul nsw i32 %8, %55
  %57 = mul nsw i32 %10, %35
  %58 = mul nsw i32 %12, %45
  %59 = add i32 %57, 1073758208
  %60 = add i32 %59, %58
  %61 = add i32 %60, %56
  %62 = lshr i32 %61, 15
  %63 = trunc i32 %62 to i16
  %64 = getelementptr inbounds nuw i16, ptr %0, i64 %indvars.iv
  store i16 %63, ptr %64, align 2, !tbaa !43
  %65 = mul nsw i32 %14, %55
  %66 = mul nsw i32 %16, %35
  %67 = mul nsw i32 %18, %45
  %68 = add i32 %66, 1073758208
  %69 = add i32 %68, %67
  %70 = add i32 %69, %65
  %71 = lshr i32 %70, 15
  %72 = trunc i32 %71 to i16
  %73 = getelementptr inbounds nuw i16, ptr %1, i64 %indvars.iv
  store i16 %72, ptr %73, align 2, !tbaa !43
  %indvars.iv.next = add nuw nsw i64 %indvars.iv, 1
  %exitcond.not = icmp eq i64 %indvars.iv.next, %wide.trip.count
  br i1 %exitcond.not, label %planar_rgbf32_to_uv.exit, label %25, !llvm.loop !50

planar_rgbf32_to_uv.exit:                         ; preds = %25, %6
  ret void
}